; Function Attrs: nounwind uwtable
define internal void @_signal_module_free(ptr noundef readonly captures(none) %0) #2 {
  %2 = getelementptr i8, ptr %0, i64 32
  %.val.i = load ptr, ptr %2, align 8, !tbaa !202
  %3 = getelementptr inbounds nuw i8, ptr %.val.i, i64 16
  %4 = load ptr, ptr %3, align 8, !tbaa !176
  %.not.i = icmp eq ptr %4, null
  br i1 %.not.i, label %Py_DECREF.exit14.i, label %5

5:                                                ; preds = %1
  store ptr null, ptr %3, align 8, !tbaa !176
  %6 = load i32, ptr %4, align 8, !tbaa !180
  %.not.i13.i = icmp sgt i32 %6, -1
  br i1 %.not.i13.i, label %7, label %Py_DECREF.exit14.i

7:                                                ; preds = %5
  %8 = add nsw i32 %6, -1
  store i32 %8, ptr %4, align 8, !tbaa !180
  %9 = icmp eq i32 %8, 0
  br i1 %9, label %10, label %Py_DECREF.exit14.i

10:                                               ; preds = %7
  tail call void @_Py_Dealloc(ptr noundef nonnull %4) #15
  br label %Py_DECREF.exit14.i

Py_DECREF.exit14.i:                               ; preds = %10, %7, %5, %1
  %11 = getelementptr inbounds nuw i8, ptr %.val.i, i64 24
  %12 = load ptr, ptr %11, align 8, !tbaa !208
  %.not12.i = icmp eq ptr %12, null
  br i1 %.not12.i, label %_signal_module_clear.exit, label %13

13:                                               ; preds = %Py_DECREF.exit14.i
  store ptr null, ptr %11, align 8, !tbaa !208
  %14 = load i32, ptr %12, align 8, !tbaa !180
  %.not.i.i = icmp sgt i32 %14, -1
  br i1 %.not.i.i, label %15, label %_signal_module_clear.exit

15:                                               ; preds = %13
  %16 = add nsw i32 %14, -1
  store i32 %16, ptr %12, align 8, !tbaa !180
  %17 = icmp eq i32 %16, 0
  br i1 %17, label %18, label %_signal_module_clear.exit

18:                                               ; preds = %15
  tail call void @_Py_Dealloc(ptr noundef nonnull %12) #15
  br label %_signal_module_clear.exit

_signal_module_clear.exit:                        ; preds = %Py_DECREF.exit14.i, %13, %15, %18
  ret void
}